target datalayout = "e-m:e-p270:32:32-p271:32:32-p272:64:64-i64:64-i128:128-f80:128-n8:16:32:64-S128"
target triple = "x86_64-unknown-linux-gnu"

%"class.sat::literal" = type { i32 }
%"class.sat::binspr" = type <{ ptr, %class.scoped_ptr.38, i32, i32, %class.vector.39, i32, i32, %class.svector.14, %class.svector.14, %class.svector.26, %class.svector.26, i32, i32, i32, i32, i32, [4 x i32], [5 x i32], [5 x i32], [4 x i8] }>
%class.scoped_ptr.38 = type { ptr }
%class.vector.39 = type { ptr }
%class.svector.14 = type { %class.vector.15 }
%class.vector.15 = type { ptr }
%class.svector.26 = type { %class.vector.27 }
%class.vector.27 = type { ptr }
%"class.sat::status" = type { i32, i32, ptr }

@_ZN3satL12null_literalE = internal global %"class.sat::literal" zeroinitializer, align 4
@.str.4 = private unnamed_addr constant [2 x i8] c"\0A\00", align 1
@.str.7 = private unnamed_addr constant [6 x i8] c"SPR: \00", align 1
@.str.8 = private unnamed_addr constant [2 x i8] c" \00", align 1
@.str.17 = private unnamed_addr constant [5 x i8] c"null\00", align 1
@.str.18 = private unnamed_addr constant [2 x i8] c"-\00", align 1
@.str.19 = private unnamed_addr constant [1 x i8] zeroinitializer, align 1

; Function Attrs: mustprogress nounwind uwtable
define linkonce_odr hidden void @_ZN3sat6statusC2ENS0_2stEiPKNS_10proof_hintE(ptr noundef nonnull align 8 dereferenceable(16) %this, i32 noundef %s, i32 noundef %o, ptr noundef %ps) unnamed_addr #4 comdat align 2 {
entry:
  %this.addr = alloca ptr, align 8
  %s.addr = alloca i32, align 4
  %o.addr = alloca i32, align 4
  %ps.addr = alloca ptr, align 8
  store ptr %this, ptr %this.addr, align 8
  store i32 %s, ptr %s.addr, align 4
  store i32 %o, ptr %o.addr, align 4
  store ptr %ps, ptr %ps.addr, align 8
  %this1 = load ptr, ptr %this.addr, align 8
  %m_st = getelementptr inbounds %"class.sat::status", ptr %this1, i32 0, i32 0
  %0 = load i32, ptr %s.addr, align 4
  store i32 %0, ptr %m_st, align 8
  %m_orig = getelementptr inbounds %"class.sat::status", ptr %this1, i32 0, i32 1
  %1 = load i32, ptr %o.addr, align 4
  store i32 %1, ptr %m_orig, align 4
  %m_hint = getelementptr inbounds %"class.sat::status", ptr %this1, i32 0, i32 2
  %2 = load ptr, ptr %ps.addr, align 8
  store ptr %2, ptr %m_hint, align 8
  ret void
}

; Function Attrs: mustprogress nounwind uwtable
define linkonce_odr hidden noundef i32 @_ZNK3sat7literal3varEv(ptr noundef nonnull align 4 dereferenceable(4) %this) #4 comdat align 2 {
entry:
  %this.addr = alloca ptr, align 8
  store ptr %this, ptr %this.addr, align 8
  %this1 = load ptr, ptr %this.addr, align 8
  %m_val = getelementptr inbounds %"class.sat::literal", ptr %this1, i32 0, i32 0
  %0 = load i32, ptr %m_val, align 4
  %shr = lshr i32 %0, 1
  ret i32 %shr
}

; Function Attrs: mustprogress nounwind uwtable
define linkonce_odr hidden noundef zeroext i1 @_ZNK3sat7literal4signEv(ptr noundef nonnull align 4 dereferenceable(4) %this) #4 comdat align 2 {
entry:
  %this.addr = alloca ptr, align 8
  store ptr %this, ptr %this.addr, align 8
  %this1 = load ptr, ptr %this.addr, align 8
  %m_val = getelementptr inbounds %"class.sat::literal", ptr %this1, i32 0, i32 0
  %0 = load i32, ptr %m_val, align 4
  %conv = zext i32 %0 to i64
  %and = and i64 %conv, 1
  %tobool = icmp ne i64 %and, 0
  ret i1 %tobool
}

; Function Attrs: mustprogress nounwind uwtable
define linkonce_odr hidden noundef zeroext i1 @_ZN3sateqERKNS_7literalES2_(ptr noundef nonnull align 4 dereferenceable(4) %l1, ptr noundef nonnull align 4 dereferenceable(4) %l2) #4 comdat {
entry:
  %l1.addr = alloca ptr, align 8
  %l2.addr = alloca ptr, align 8
  store ptr %l1, ptr %l1.addr, align 8
  store ptr %l2, ptr %l2.addr, align 8
  %0 = load ptr, ptr %l1.addr, align 8
  %m_val = getelementptr inbounds %"class.sat::literal", ptr %0, i32 0, i32 0
  %1 = load i32, ptr %m_val, align 4
  %2 = load ptr, ptr %l2.addr, align 8
  %m_val1 = getelementptr inbounds %"class.sat::literal", ptr %2, i32 0, i32 0
  %3 = load i32, ptr %m_val1, align 4
  %cmp = icmp eq i32 %1, %3
  ret i1 %cmp
}

; Function Attrs: mustprogress uwtable
define linkonce_odr hidden void @_ZN3sat6status8assertedEv(ptr noalias sret(%"class.sat::status") align 8 %agg.result) #5 comdat align 2 {
entry:
  %result.ptr = alloca ptr, align 8
  store ptr %agg.result, ptr %result.ptr, align 8
  call void @_ZN3sat6statusC2ENS0_2stEiPKNS_10proof_hintE(ptr noundef nonnull align 8 dereferenceable(16) %agg.result, i32 noundef 1, i32 noundef -1, ptr noundef null)
  ret void
}

; Function Attrs: mustprogress uwtable
define linkonce_odr hidden void @_ZN3sat6status9redundantEv(ptr noalias sret(%"class.sat::status") align 8 %agg.result) #5 comdat align 2 {
entry:
  %result.ptr = alloca ptr, align 8
  store ptr %agg.result, ptr %result.ptr, align 8
  call void @_ZN3sat6statusC2ENS0_2stEiPKNS_10proof_hintE(ptr noundef nonnull align 8 dereferenceable(16) %agg.result, i32 noundef 2, i32 noundef -1, ptr noundef null)
  ret void
}

; Function Attrs: mustprogress nounwind uwtable
define linkonce_odr hidden noundef ptr @_ZNK10scoped_ptrIN3sat6solverEEptEv(ptr noundef nonnull align 8 dereferenceable(8) %this) #4 comdat align 2 {
entry:
  %this.addr = alloca ptr, align 8
  store ptr %this, ptr %this.addr, align 8
  %this1 = load ptr, ptr %this.addr, align 8
  %m_ptr = getelementptr inbounds %class.scoped_ptr.38, ptr %this1, i32 0, i32 0
  %0 = load ptr, ptr %m_ptr, align 8
  ret ptr %0
}

; Function Attrs: mustprogress uwtable
define linkonce_odr hidden noundef nonnull align 8 dereferenceable(8) ptr @_ZN3satlsERSoNS_7literalE(ptr noundef nonnull align 8 dereferenceable(8) %out, i32 %l.coerce) #5 comdat {
entry:
  %l = alloca %"class.sat::literal", align 4
  %out.addr = alloca ptr, align 8
  %coerce.dive = getelementptr inbounds %"class.sat::literal", ptr %l, i32 0, i32 0
  store i32 %l.coerce, ptr %coerce.dive, align 4
  store ptr %out, ptr %out.addr, align 8
  %call = call noundef zeroext i1 @_ZN3sateqERKNS_7literalES2_(ptr noundef nonnull align 4 dereferenceable(4) %l, ptr noundef nonnull align 4 dereferenceable(4) @_ZN3satL12null_literalE)
  br i1 %call, label %if.then, label %if.else

if.then:                                          ; preds = %entry
  %0 = load ptr, ptr %out.addr, align 8
  %call1 = call noundef nonnull align 8 dereferenceable(8) ptr @_ZStlsISt11char_traitsIcEERSt13basic_ostreamIcT_ES5_PKc(ptr noundef nonnull align 8 dereferenceable(8) %0, ptr noundef @.str.17)
  br label %if.end

if.else:                                          ; preds = %entry
  %1 = load ptr, ptr %out.addr, align 8
  %call2 = call noundef zeroext i1 @_ZNK3sat7literal4signEv(ptr noundef nonnull align 4 dereferenceable(4) %l)
  %cond = select i1 %call2, ptr @.str.18, ptr @.str.19
  %call3 = call noundef nonnull align 8 dereferenceable(8) ptr @_ZStlsISt11char_traitsIcEERSt13basic_ostreamIcT_ES5_PKc(ptr noundef nonnull align 8 dereferenceable(8) %1, ptr noundef %cond)
  %call4 = call noundef i32 @_ZNK3sat7literal3varEv(ptr noundef nonnull align 4 dereferenceable(4) %l)
  %call5 = call noundef nonnull align 8 dereferenceable(8) ptr @_ZNSolsEj(ptr noundef nonnull align 8 dereferenceable(8) %call3, i32 noundef %call4)
  br label %if.end

if.end:                                           ; preds = %if.else, %if.then
  %2 = load ptr, ptr %out.addr, align 8
  ret ptr %2
}

; Function Attrs: mustprogress nounwind uwtable
define linkonce_odr hidden i32 @_ZN3satcoENS_7literalE(i32 %l.coerce) #4 comdat {
entry:
  %retval = alloca %"class.sat::literal", align 4
  %l = alloca %"class.sat::literal", align 4
  %coerce.dive = getelementptr inbounds %"class.sat::literal", ptr %l, i32 0, i32 0
  store i32 %l.coerce, ptr %coerce.dive, align 4
  %m_val = getelementptr inbounds %"class.sat::literal", ptr %l, i32 0, i32 0
  %0 = load i32, ptr %m_val, align 4
  %xor = xor i32 %0, 1
  %m_val1 = getelementptr inbounds %"class.sat::literal", ptr %l, i32 0, i32 0
  store i32 %xor, ptr %m_val1, align 4
  call void @llvm.memcpy.p0.p0.i64(ptr align 4 %retval, ptr align 4 %l, i64 4, i1 false)
  %coerce.dive2 = getelementptr inbounds %"class.sat::literal", ptr %retval, i32 0, i32 0
  %1 = load i32, ptr %coerce.dive2, align 4
  ret i32 %1
}

; Function Attrs: mustprogress uwtable
define hidden void @_ZN3sat6binspr12block_binaryENS_7literalES1_b(ptr noundef nonnull align 8 dereferenceable(148) %this, i32 %lit1.coerce, i32 %lit2.coerce, i1 noundef zeroext %learned) #5 align 2 {
entry:
  %lit1 = alloca %"class.sat::literal", align 4
  %lit2 = alloca %"class.sat::literal", align 4
  %this.addr = alloca ptr, align 8
  %learned.addr = alloca i8, align 1
  %agg.tmp = alloca %"class.sat::literal", align 4
  %agg.tmp9 = alloca %"class.sat::literal", align 4
  %agg.tmp16 = alloca %"class.sat::literal", align 4
  %agg.tmp17 = alloca %"class.sat::literal", align 4
  %agg.tmp29 = alloca %"class.sat::literal", align 4
  %agg.tmp30 = alloca %"class.sat::literal", align 4
  %agg.tmp37 = alloca %"class.sat::literal", align 4
  %agg.tmp38 = alloca %"class.sat::literal", align 4
  %agg.tmp47 = alloca %"class.sat::literal", align 4
  %agg.tmp48 = alloca %"class.sat::literal", align 4
  %agg.tmp52 = alloca %"class.sat::literal", align 4
  %agg.tmp53 = alloca %"class.sat::literal", align 4
  %agg.tmp57 = alloca %"class.sat::status", align 8
  %coerce.dive = getelementptr inbounds %"class.sat::literal", ptr %lit1, i32 0, i32 0
  store i32 %lit1.coerce, ptr %coerce.dive, align 4
  %coerce.dive1 = getelementptr inbounds %"class.sat::literal", ptr %lit2, i32 0, i32 0
  store i32 %lit2.coerce, ptr %coerce.dive1, align 4
  store ptr %this, ptr %this.addr, align 8
  %frombool = zext i1 %learned to i8
  store i8 %frombool, ptr %learned.addr, align 1
  %this2 = load ptr, ptr %this.addr, align 8
  %call = call noundef i32 @_Z19get_verbosity_levelv()
  %cmp = icmp uge i32 %call, 2
  br i1 %cmp, label %if.then, label %if.end45

if.then:                                          ; preds = %entry
  %call3 = call noundef zeroext i1 @_Z11is_threadedv()
  br i1 %call3, label %if.then4, label %if.else

if.then4:                                         ; preds = %if.then
  call void @_Z12verbose_lockv()
  %call5 = call noundef nonnull align 8 dereferenceable(8) ptr @_Z14verbose_streamv()
  %call6 = call noundef nonnull align 8 dereferenceable(8) ptr @_ZStlsISt11char_traitsIcEERSt13basic_ostreamIcT_ES5_PKc(ptr noundef nonnull align 8 dereferenceable(8) %call5, ptr noundef @.str.7)
  %0 = load i8, ptr %learned.addr, align 1
  %tobool = trunc i8 %0 to i1
  %call7 = call noundef nonnull align 8 dereferenceable(8) ptr @_ZNSolsEb(ptr noundef nonnull align 8 dereferenceable(8) %call6, i1 noundef zeroext %tobool)
  %call8 = call noundef nonnull align 8 dereferenceable(8) ptr @_ZStlsISt11char_traitsIcEERSt13basic_ostreamIcT_ES5_PKc(ptr noundef nonnull align 8 dereferenceable(8) %call7, ptr noundef @.str.8)
  call void @llvm.memcpy.p0.p0.i64(ptr align 4 %agg.tmp9, ptr align 4 %lit1, i64 4, i1 false)
  %coerce.dive10 = getelementptr inbounds %"class.sat::literal", ptr %agg.tmp9, i32 0, i32 0
  %1 = load i32, ptr %coerce.dive10, align 4
  %call11 = call i32 @_ZN3satcoENS_7literalE(i32 %1)
  %coerce.dive12 = getelementptr inbounds %"class.sat::literal", ptr %agg.tmp, i32 0, i32 0
  store i32 %call11, ptr %coerce.dive12, align 4
  %coerce.dive13 = getelementptr inbounds %"class.sat::literal", ptr %agg.tmp, i32 0, i32 0
  %2 = load i32, ptr %coerce.dive13, align 4
  %call14 = call noundef nonnull align 8 dereferenceable(8) ptr @_ZN3satlsERSoNS_7literalE(ptr noundef nonnull align 8 dereferenceable(8) %call8, i32 %2)
  %call15 = call noundef nonnull align 8 dereferenceable(8) ptr @_ZStlsISt11char_traitsIcEERSt13basic_ostreamIcT_ES5_PKc(ptr noundef nonnull align 8 dereferenceable(8) %call14, ptr noundef @.str.8)
  call void @llvm.memcpy.p0.p0.i64(ptr align 4 %agg.tmp17, ptr align 4 %lit2, i64 4, i1 false)
  %coerce.dive18 = getelementptr inbounds %"class.sat::literal", ptr %agg.tmp17, i32 0, i32 0
  %3 = load i32, ptr %coerce.dive18, align 4
  %call19 = call i32 @_ZN3satcoENS_7literalE(i32 %3)
  %coerce.dive20 = getelementptr inbounds %"class.sat::literal", ptr %agg.tmp16, i32 0, i32 0
  store i32 %call19, ptr %coerce.dive20, align 4
  %coerce.dive21 = getelementptr inbounds %"class.sat::literal", ptr %agg.tmp16, i32 0, i32 0
  %4 = load i32, ptr %coerce.dive21, align 4
  %call22 = call noundef nonnull align 8 dereferenceable(8) ptr @_ZN3satlsERSoNS_7literalE(ptr noundef nonnull align 8 dereferenceable(8) %call15, i32 %4)
  %call23 = call noundef nonnull align 8 dereferenceable(8) ptr @_ZStlsISt11char_traitsIcEERSt13basic_ostreamIcT_ES5_PKc(ptr noundef nonnull align 8 dereferenceable(8) %call22, ptr noundef @.str.4)
  call void @_Z14verbose_unlockv()
  br label %if.end

if.else:                                          ; preds = %if.then
  %call24 = call noundef nonnull align 8 dereferenceable(8) ptr @_Z14verbose_streamv()
  %call25 = call noundef nonnull align 8 dereferenceable(8) ptr @_ZStlsISt11char_traitsIcEERSt13basic_ostreamIcT_ES5_PKc(ptr noundef nonnull align 8 dereferenceable(8) %call24, ptr noundef @.str.7)
  %5 = load i8, ptr %learned.addr, align 1
  %tobool26 = trunc i8 %5 to i1
  %call27 = call noundef nonnull align 8 dereferenceable(8) ptr @_ZNSolsEb(ptr noundef nonnull align 8 dereferenceable(8) %call25, i1 noundef zeroext %tobool26)
  %call28 = call noundef nonnull align 8 dereferenceable(8) ptr @_ZStlsISt11char_traitsIcEERSt13basic_ostreamIcT_ES5_PKc(ptr noundef nonnull align 8 dereferenceable(8) %call27, ptr noundef @.str.8)
  call void @llvm.memcpy.p0.p0.i64(ptr align 4 %agg.tmp30, ptr align 4 %lit1, i64 4, i1 false)
  %coerce.dive31 = getelementptr inbounds %"class.sat::literal", ptr %agg.tmp30, i32 0, i32 0
  %6 = load i32, ptr %coerce.dive31, align 4
  %call32 = call i32 @_ZN3satcoENS_7literalE(i32 %6)
  %coerce.dive33 = getelementptr inbounds %"class.sat::literal", ptr %agg.tmp29, i32 0, i32 0
  store i32 %call32, ptr %coerce.dive33, align 4
  %coerce.dive34 = getelementptr inbounds %"class.sat::literal", ptr %agg.tmp29, i32 0, i32 0
  %7 = load i32, ptr %coerce.dive34, align 4
  %call35 = call noundef nonnull align 8 dereferenceable(8) ptr @_ZN3satlsERSoNS_7literalE(ptr noundef nonnull align 8 dereferenceable(8) %call28, i32 %7)
  %call36 = call noundef nonnull align 8 dereferenceable(8) ptr @_ZStlsISt11char_traitsIcEERSt13basic_ostreamIcT_ES5_PKc(ptr noundef nonnull align 8 dereferenceable(8) %call35, ptr noundef @.str.8)
  call void @llvm.memcpy.p0.p0.i64(ptr align 4 %agg.tmp38, ptr align 4 %lit2, i64 4, i1 false)
  %coerce.dive39 = getelementptr inbounds %"class.sat::literal", ptr %agg.tmp38, i32 0, i32 0
  %8 = load i32, ptr %coerce.dive39, align 4
  %call40 = call i32 @_ZN3satcoENS_7literalE(i32 %8)
  %coerce.dive41 = getelementptr inbounds %"class.sat::literal", ptr %agg.tmp37, i32 0, i32 0
  store i32 %call40, ptr %coerce.dive41, align 4
  %coerce.dive42 = getelementptr inbounds %"class.sat::literal", ptr %agg.tmp37, i32 0, i32 0
  %9 = load i32, ptr %coerce.dive42, align 4
  %call43 = call noundef nonnull align 8 dereferenceable(8) ptr @_ZN3satlsERSoNS_7literalE(ptr noundef nonnull align 8 dereferenceable(8) %call36, i32 %9)
  %call44 = call noundef nonnull align 8 dereferenceable(8) ptr @_ZStlsISt11char_traitsIcEERSt13basic_ostreamIcT_ES5_PKc(ptr noundef nonnull align 8 dereferenceable(8) %call43, ptr noundef @.str.4)
  br label %if.end

if.end:                                           ; preds = %if.else, %if.then4
  br label %if.end45

if.end45:                                         ; preds = %if.end, %entry
  %s = getelementptr inbounds %"class.sat::binspr", ptr %this2, i32 0, i32 1
  %call46 = call noundef ptr @_ZNK10scoped_ptrIN3sat6solverEEptEv(ptr noundef nonnull align 8 dereferenceable(8) %s)
  call void @llvm.memcpy.p0.p0.i64(ptr align 4 %agg.tmp48, ptr align 4 %lit1, i64 4, i1 false)
  %coerce.dive49 = getelementptr inbounds %"class.sat::literal", ptr %agg.tmp48, i32 0, i32 0
  %10 = load i32, ptr %coerce.dive49, align 4
  %call50 = call i32 @_ZN3satcoENS_7literalE(i32 %10)
  %coerce.dive51 = getelementptr inbounds %"class.sat::literal", ptr %agg.tmp47, i32 0, i32 0
  store i32 %call50, ptr %coerce.dive51, align 4
  call void @llvm.memcpy.p0.p0.i64(ptr align 4 %agg.tmp53, ptr align 4 %lit2, i64 4, i1 false)
  %coerce.dive54 = getelementptr inbounds %"class.sat::literal", ptr %agg.tmp53, i32 0, i32 0
  %11 = load i32, ptr %coerce.dive54, align 4
  %call55 = call i32 @_ZN3satcoENS_7literalE(i32 %11)
  %coerce.dive56 = getelementptr inbounds %"class.sat::literal", ptr %agg.tmp52, i32 0, i32 0
  store i32 %call55, ptr %coerce.dive56, align 4
  %12 = load i8, ptr %learned.addr, align 1
  %tobool58 = trunc i8 %12 to i1
  br i1 %tobool58, label %cond.true, label %cond.false

cond.true:                                        ; preds = %if.end45
  call void @_ZN3sat6status9redundantEv(ptr sret(%"class.sat::status") align 8 %agg.tmp57)
  br label %cond.end

cond.false:                                       ; preds = %if.end45
  call void @_ZN3sat6status8assertedEv(ptr sret(%"class.sat::status") align 8 %agg.tmp57)
  br label %cond.end

cond.end:                                         ; preds = %cond.false, %cond.true
  %coerce.dive59 = getelementptr inbounds %"class.sat::literal", ptr %agg.tmp47, i32 0, i32 0
  %13 = load i32, ptr %coerce.dive59, align 4
  %coerce.dive60 = getelementptr inbounds %"class.sat::literal", ptr %agg.tmp52, i32 0, i32 0
  %14 = load i32, ptr %coerce.dive60, align 4
  %call61 = call noundef ptr @_ZN3sat6solver9mk_clauseENS_7literalES1_NS_6statusE(ptr noundef nonnull align 8 dereferenceable(4408) %call46, i32 %13, i32 %14, ptr noundef %agg.tmp57)
  %m_bin_clauses = getelementptr inbounds %"class.sat::binspr", ptr %this2, i32 0, i32 2
  %15 = load i32, ptr %m_bin_clauses, align 8
  %inc = add i32 %15, 1
  store i32 %inc, ptr %m_bin_clauses, align 8
  ret void
}