; Function Attrs: mustprogress uwtable
define hidden void @_ZN3sat6binspr12block_binaryENS_7literalES1_b(ptr nocapture noundef nonnull align 8 dereferenceable(148) %this, i32 %lit1.coerce, i32 %lit2.coerce, i1 noundef zeroext %learned) local_unnamed_addr #3 align 2 {
entry:
  %agg.tmp57 = alloca %"class.sat::status", align 8
  %call = tail call noundef i32 @_Z19get_verbosity_levelv()
  %cmp = icmp ugt i32 %call, 1
  br i1 %cmp, label %if.then, label %if.end45

if.then:                                          ; preds = %entry
  %call3 = tail call noundef zeroext i1 @_Z11is_threadedv()
  br i1 %call3, label %if.then4, label %if.else

if.then4:                                         ; preds = %if.then
  tail call void @_Z12verbose_lockv()
  %call5 = tail call noundef nonnull align 8 dereferenceable(8) ptr @_Z14verbose_streamv()
  %call6 = tail call noundef nonnull align 8 dereferenceable(8) ptr @_ZStlsISt11char_traitsIcEERSt13basic_ostreamIcT_ES5_PKc(ptr noundef nonnull align 8 dereferenceable(8) %call5, ptr noundef nonnull @.str.7)
  %call7 = tail call noundef nonnull align 8 dereferenceable(8) ptr @_ZNSolsEb(ptr noundef nonnull align 8 dereferenceable(8) %call6, i1 noundef zeroext %learned)
  %call8 = tail call noundef nonnull align 8 dereferenceable(8) ptr @_ZStlsISt11char_traitsIcEERSt13basic_ostreamIcT_ES5_PKc(ptr noundef nonnull align 8 dereferenceable(8) %call7, ptr noundef nonnull @.str.8)
  %.b46 = load i1, ptr @_ZN3satL12null_literalE.0, align 4
  %0 = select i1 %.b46, i32 -2, i32 0
  %1 = xor i32 %0, %lit1.coerce
  %cmp.i.i = icmp eq i32 %1, 1
  br i1 %cmp.i.i, label %if.then.i, label %if.else.i

if.then.i:                                        ; preds = %if.then4
  %call1.i = tail call noundef nonnull align 8 dereferenceable(8) ptr @_ZStlsISt11char_traitsIcEERSt13basic_ostreamIcT_ES5_PKc(ptr noundef nonnull align 8 dereferenceable(8) %call8, ptr noundef nonnull @.str.17)
  br label %_ZN3satlsERSoNS_7literalE.exit

if.else.i:                                        ; preds = %if.then4
  %2 = and i32 %lit1.coerce, 1
  %tobool.i.not.i.not = icmp eq i32 %2, 0
  %cond.i = select i1 %tobool.i.not.i.not, ptr @.str.18, ptr @.str.19
  %call3.i = tail call noundef nonnull align 8 dereferenceable(8) ptr @_ZStlsISt11char_traitsIcEERSt13basic_ostreamIcT_ES5_PKc(ptr noundef nonnull align 8 dereferenceable(8) %call8, ptr noundef nonnull %cond.i)
  %shr.i.i = lshr i32 %lit1.coerce, 1
  %call5.i = tail call noundef nonnull align 8 dereferenceable(8) ptr @_ZNSolsEj(ptr noundef nonnull align 8 dereferenceable(8) %call3.i, i32 noundef %shr.i.i)
  br label %_ZN3satlsERSoNS_7literalE.exit

_ZN3satlsERSoNS_7literalE.exit:                   ; preds = %if.then.i, %if.else.i
  %call15 = tail call noundef nonnull align 8 dereferenceable(8) ptr @_ZStlsISt11char_traitsIcEERSt13basic_ostreamIcT_ES5_PKc(ptr noundef nonnull align 8 dereferenceable(8) %call8, ptr noundef nonnull @.str.8)
  %.b45 = load i1, ptr @_ZN3satL12null_literalE.0, align 4
  %3 = select i1 %.b45, i32 -2, i32 0
  %4 = xor i32 %3, %lit2.coerce
  %cmp.i.i8 = icmp eq i32 %4, 1
  br i1 %cmp.i.i8, label %if.then.i15, label %if.else.i9

if.then.i15:                                      ; preds = %_ZN3satlsERSoNS_7literalE.exit
  %call1.i16 = tail call noundef nonnull align 8 dereferenceable(8) ptr @_ZStlsISt11char_traitsIcEERSt13basic_ostreamIcT_ES5_PKc(ptr noundef nonnull align 8 dereferenceable(8) %call15, ptr noundef nonnull @.str.17)
  br label %_ZN3satlsERSoNS_7literalE.exit17

if.else.i9:                                       ; preds = %_ZN3satlsERSoNS_7literalE.exit
  %5 = and i32 %lit2.coerce, 1
  %tobool.i.not.i10.not = icmp eq i32 %5, 0
  %cond.i11 = select i1 %tobool.i.not.i10.not, ptr @.str.18, ptr @.str.19
  %call3.i12 = tail call noundef nonnull align 8 dereferenceable(8) ptr @_ZStlsISt11char_traitsIcEERSt13basic_ostreamIcT_ES5_PKc(ptr noundef nonnull align 8 dereferenceable(8) %call15, ptr noundef nonnull %cond.i11)
  %shr.i.i13 = lshr i32 %lit2.coerce, 1
  %call5.i14 = tail call noundef nonnull align 8 dereferenceable(8) ptr @_ZNSolsEj(ptr noundef nonnull align 8 dereferenceable(8) %call3.i12, i32 noundef %shr.i.i13)
  br label %_ZN3satlsERSoNS_7literalE.exit17

_ZN3satlsERSoNS_7literalE.exit17:                 ; preds = %if.then.i15, %if.else.i9
  %call23 = tail call noundef nonnull align 8 dereferenceable(8) ptr @_ZStlsISt11char_traitsIcEERSt13basic_ostreamIcT_ES5_PKc(ptr noundef nonnull align 8 dereferenceable(8) %call15, ptr noundef nonnull @.str.4)
  tail call void @_Z14verbose_unlockv()
  br label %if.end45

if.else:                                          ; preds = %if.then
  %call24 = tail call noundef nonnull align 8 dereferenceable(8) ptr @_Z14verbose_streamv()
  %call25 = tail call noundef nonnull align 8 dereferenceable(8) ptr @_ZStlsISt11char_traitsIcEERSt13basic_ostreamIcT_ES5_PKc(ptr noundef nonnull align 8 dereferenceable(8) %call24, ptr noundef nonnull @.str.7)
  %call27 = tail call noundef nonnull align 8 dereferenceable(8) ptr @_ZNSolsEb(ptr noundef nonnull align 8 dereferenceable(8) %call25, i1 noundef zeroext %learned)
  %call28 = tail call noundef nonnull align 8 dereferenceable(8) ptr @_ZStlsISt11char_traitsIcEERSt13basic_ostreamIcT_ES5_PKc(ptr noundef nonnull align 8 dereferenceable(8) %call27, ptr noundef nonnull @.str.8)
  %.b44 = load i1, ptr @_ZN3satL12null_literalE.0, align 4
  %6 = select i1 %.b44, i32 -2, i32 0
  %7 = xor i32 %6, %lit1.coerce
  %cmp.i.i19 = icmp eq i32 %7, 1
  br i1 %cmp.i.i19, label %if.then.i26, label %if.else.i20

if.then.i26:                                      ; preds = %if.else
  %call1.i27 = tail call noundef nonnull align 8 dereferenceable(8) ptr @_ZStlsISt11char_traitsIcEERSt13basic_ostreamIcT_ES5_PKc(ptr noundef nonnull align 8 dereferenceable(8) %call28, ptr noundef nonnull @.str.17)
  br label %_ZN3satlsERSoNS_7literalE.exit28

if.else.i20:                                      ; preds = %if.else
  %8 = and i32 %lit1.coerce, 1
  %tobool.i.not.i21.not = icmp eq i32 %8, 0
  %cond.i22 = select i1 %tobool.i.not.i21.not, ptr @.str.18, ptr @.str.19
  %call3.i23 = tail call noundef nonnull align 8 dereferenceable(8) ptr @_ZStlsISt11char_traitsIcEERSt13basic_ostreamIcT_ES5_PKc(ptr noundef nonnull align 8 dereferenceable(8) %call28, ptr noundef nonnull %cond.i22)
  %shr.i.i24 = lshr i32 %lit1.coerce, 1
  %call5.i25 = tail call noundef nonnull align 8 dereferenceable(8) ptr @_ZNSolsEj(ptr noundef nonnull align 8 dereferenceable(8) %call3.i23, i32 noundef %shr.i.i24)
  br label %_ZN3satlsERSoNS_7literalE.exit28

_ZN3satlsERSoNS_7literalE.exit28:                 ; preds = %if.then.i26, %if.else.i20
  %call36 = tail call noundef nonnull align 8 dereferenceable(8) ptr @_ZStlsISt11char_traitsIcEERSt13basic_ostreamIcT_ES5_PKc(ptr noundef nonnull align 8 dereferenceable(8) %call28, ptr noundef nonnull @.str.8)
  %.b = load i1, ptr @_ZN3satL12null_literalE.0, align 4
  %9 = select i1 %.b, i32 -2, i32 0
  %10 = xor i32 %9, %lit2.coerce
  %cmp.i.i30 = icmp eq i32 %10, 1
  br i1 %cmp.i.i30, label %if.then.i37, label %if.else.i31

if.then.i37:                                      ; preds = %_ZN3satlsERSoNS_7literalE.exit28
  %call1.i38 = tail call noundef nonnull align 8 dereferenceable(8) ptr @_ZStlsISt11char_traitsIcEERSt13basic_ostreamIcT_ES5_PKc(ptr noundef nonnull align 8 dereferenceable(8) %call36, ptr noundef nonnull @.str.17)
  br label %_ZN3satlsERSoNS_7literalE.exit39

if.else.i31:                                      ; preds = %_ZN3satlsERSoNS_7literalE.exit28
  %11 = and i32 %lit2.coerce, 1
  %tobool.i.not.i32.not = icmp eq i32 %11, 0
  %cond.i33 = select i1 %tobool.i.not.i32.not, ptr @.str.18, ptr @.str.19
  %call3.i34 = tail call noundef nonnull align 8 dereferenceable(8) ptr @_ZStlsISt11char_traitsIcEERSt13basic_ostreamIcT_ES5_PKc(ptr noundef nonnull align 8 dereferenceable(8) %call36, ptr noundef nonnull %cond.i33)
  %shr.i.i35 = lshr i32 %lit2.coerce, 1
  %call5.i36 = tail call noundef nonnull align 8 dereferenceable(8) ptr @_ZNSolsEj(ptr noundef nonnull align 8 dereferenceable(8) %call3.i34, i32 noundef %shr.i.i35)
  br label %_ZN3satlsERSoNS_7literalE.exit39

_ZN3satlsERSoNS_7literalE.exit39:                 ; preds = %if.then.i37, %if.else.i31
  %call44 = tail call noundef nonnull align 8 dereferenceable(8) ptr @_ZStlsISt11char_traitsIcEERSt13basic_ostreamIcT_ES5_PKc(ptr noundef nonnull align 8 dereferenceable(8) %call36, ptr noundef nonnull @.str.4)
  br label %if.end45

if.end45:                                         ; preds = %_ZN3satlsERSoNS_7literalE.exit17, %_ZN3satlsERSoNS_7literalE.exit39, %entry
  %s = getelementptr inbounds i8, ptr %this, i64 8
  %12 = load ptr, ptr %s, align 8
  %spec.select = select i1 %learned, i32 2, i32 1
  store i32 %spec.select, ptr %agg.tmp57, align 8
  %13 = getelementptr inbounds i8, ptr %agg.tmp57, i64 4
  store i32 -1, ptr %13, align 4
  %14 = getelementptr inbounds i8, ptr %agg.tmp57, i64 8
  store ptr null, ptr %14, align 8
  %xor.i41 = xor i32 %lit2.coerce, 1
  %xor.i40 = xor i32 %lit1.coerce, 1
  %call61 = call noundef ptr @_ZN3sat6solver9mk_clauseENS_7literalES1_NS_6statusE(ptr noundef nonnull align 8 dereferenceable(4408) %12, i32 %xor.i40, i32 %xor.i41, ptr noundef nonnull %agg.tmp57)
  %m_bin_clauses = getelementptr inbounds i8, ptr %this, i64 16
  %15 = load i32, ptr %m_bin_clauses, align 8
  %inc = add i32 %15, 1
  store i32 %inc, ptr %m_bin_clauses, align 8
  ret void
}